target datalayout = "e-m:e-p270:32:32-p271:32:32-p272:64:64-i64:64-i128:128-f80:128-n8:16:32:64-S128"
target triple = "x86_64-pc-linux-gnu"

%struct.anon = type { ptr, ptr, i64 }
%struct.png_text_struct = type { i32, ptr, ptr, i64, i64, ptr, ptr }
%struct.MetadataPayload = type { ptr, i64 }
%struct.Metadata = type { %struct.MetadataPayload, %struct.MetadataPayload, %struct.MetadataPayload }

@stderr = external global ptr, align 8
@.str.4 = private unnamed_addr constant [26 x i8] c"Ignoring additional '%s'\0A\00", align 1
@.str.5 = private unnamed_addr constant [25 x i8] c"Failed to process: '%s'\0A\00", align 1

; Function Attrs: nounwind uwtable
define internal i32 @ExtractMetadataFromPNG(ptr noundef %0, ptr noundef %1, ptr noundef %2, ptr noundef %3) #0 {
  %5 = alloca i32, align 4
  %6 = alloca ptr, align 8
  %7 = alloca ptr, align 8
  %8 = alloca ptr, align 8
  %9 = alloca ptr, align 8
  %10 = alloca i32, align 4
  %11 = alloca ptr, align 8
  %12 = alloca ptr, align 8
  %13 = alloca i32, align 4
  %14 = alloca i32, align 4
  %15 = alloca i32, align 4
  %16 = alloca ptr, align 8
  %17 = alloca i64, align 8
  %18 = alloca i32, align 4
  %19 = alloca ptr, align 8
  %20 = alloca i32, align 4
  %21 = alloca ptr, align 8
  %22 = alloca i32, align 4
  store ptr %0, ptr %6, align 8, !tbaa !17
  store ptr %1, ptr %7, align 8, !tbaa !19
  store ptr %2, ptr %8, align 8, !tbaa !19
  store ptr %3, ptr %9, align 8, !tbaa !15
  call void @llvm.lifetime.start.p0(i64 4, ptr %10) #11
  store i32 0, ptr %10, align 4, !tbaa !13
  br label %23

23:                                               ; preds = %150, %4
  %24 = load i32, ptr %10, align 4, !tbaa !13
  %25 = icmp slt i32 %24, 2
  br i1 %25, label %26, label %153

26:                                               ; preds = %23
  call void @llvm.lifetime.start.p0(i64 8, ptr %11) #11
  %27 = load i32, ptr %10, align 4, !tbaa !13
  %28 = icmp eq i32 %27, 0
  br i1 %28, label %29, label %31

29:                                               ; preds = %26
  %30 = load ptr, ptr %7, align 8, !tbaa !19
  br label %33

31:                                               ; preds = %26
  %32 = load ptr, ptr %8, align 8, !tbaa !19
  br label %33

33:                                               ; preds = %31, %29
  %34 = phi ptr [ %30, %29 ], [ %32, %31 ]
  store ptr %34, ptr %11, align 8, !tbaa !19
  call void @llvm.lifetime.start.p0(i64 8, ptr %12) #11
  store ptr null, ptr %12, align 8, !tbaa !38
  call void @llvm.lifetime.start.p0(i64 4, ptr %13) #11
  %35 = load ptr, ptr %6, align 8, !tbaa !17
  %36 = load ptr, ptr %11, align 8, !tbaa !19
  %37 = call i32 @png_get_text(ptr noundef %35, ptr noundef %36, ptr noundef %12, ptr noundef null)
  store i32 %37, ptr %13, align 4, !tbaa !13
  call void @llvm.lifetime.start.p0(i64 4, ptr %14) #11
  store i32 0, ptr %14, align 4, !tbaa !13
  br label %38

38:                                               ; preds = %123, %33
  %39 = load i32, ptr %14, align 4, !tbaa !13
  %40 = load i32, ptr %13, align 4, !tbaa !13
  %41 = icmp ult i32 %39, %40
  br i1 %41, label %42, label %128

42:                                               ; preds = %38
  call void @llvm.lifetime.start.p0(i64 4, ptr %15) #11
  store i32 0, ptr %15, align 4, !tbaa !13
  br label %43

43:                                               ; preds = %116, %42
  %44 = load i32, ptr %15, align 4, !tbaa !13
  %45 = sext i32 %44 to i64
  %46 = getelementptr inbounds [5 x %struct.anon], ptr @kPNGMetadataMap, i64 0, i64 %45
  %47 = getelementptr inbounds nuw %struct.anon, ptr %46, i32 0, i32 0
  %48 = load ptr, ptr %47, align 8, !tbaa !40
  %49 = icmp ne ptr %48, null
  br i1 %49, label %50, label %119

50:                                               ; preds = %43
  %51 = load ptr, ptr %12, align 8, !tbaa !38
  %52 = getelementptr inbounds nuw %struct.png_text_struct, ptr %51, i32 0, i32 1
  %53 = load ptr, ptr %52, align 8, !tbaa !42
  %54 = load i32, ptr %15, align 4, !tbaa !13
  %55 = sext i32 %54 to i64
  %56 = getelementptr inbounds [5 x %struct.anon], ptr @kPNGMetadataMap, i64 0, i64 %55
  %57 = getelementptr inbounds nuw %struct.anon, ptr %56, i32 0, i32 0
  %58 = load ptr, ptr %57, align 8, !tbaa !40
  %59 = call i32 @strcmp(ptr noundef %53, ptr noundef %58) #16
  %60 = icmp ne i32 %59, 0
  br i1 %60, label %115, label %61

61:                                               ; preds = %50
  call void @llvm.lifetime.start.p0(i64 8, ptr %16) #11
  %62 = load ptr, ptr %9, align 8, !tbaa !15
  %63 = load i32, ptr %15, align 4, !tbaa !13
  %64 = sext i32 %63 to i64
  %65 = getelementptr inbounds [5 x %struct.anon], ptr @kPNGMetadataMap, i64 0, i64 %64
  %66 = getelementptr inbounds nuw %struct.anon, ptr %65, i32 0, i32 2
  %67 = load i64, ptr %66, align 8, !tbaa !44
  %68 = getelementptr inbounds nuw i8, ptr %62, i64 %67
  store ptr %68, ptr %16, align 8, !tbaa !45
  call void @llvm.lifetime.start.p0(i64 8, ptr %17) #11
  %69 = load ptr, ptr %12, align 8, !tbaa !38
  %70 = getelementptr inbounds nuw %struct.png_text_struct, ptr %69, i32 0, i32 0
  %71 = load i32, ptr %70, align 8, !tbaa !47
  switch i32 %71, label %77 [
    i32 1, label %72
    i32 2, label %72
    i32 -1, label %76
    i32 0, label %76
  ]

72:                                               ; preds = %61, %61
  %73 = load ptr, ptr %12, align 8, !tbaa !38
  %74 = getelementptr inbounds nuw %struct.png_text_struct, ptr %73, i32 0, i32 4
  %75 = load i64, ptr %74, align 8, !tbaa !48
  store i64 %75, ptr %17, align 8, !tbaa !9
  br label %81

76:                                               ; preds = %61, %61
  br label %77

77:                                               ; preds = %61, %76
  %78 = load ptr, ptr %12, align 8, !tbaa !38
  %79 = getelementptr inbounds nuw %struct.png_text_struct, ptr %78, i32 0, i32 3
  %80 = load i64, ptr %79, align 8, !tbaa !49
  store i64 %80, ptr %17, align 8, !tbaa !9
  br label %81

81:                                               ; preds = %77, %72
  %82 = load ptr, ptr %16, align 8, !tbaa !45
  %83 = getelementptr inbounds nuw %struct.MetadataPayload, ptr %82, i32 0, i32 0
  %84 = load ptr, ptr %83, align 8, !tbaa !50
  %85 = icmp ne ptr %84, null
  br i1 %85, label %86, label %92

86:                                               ; preds = %81
  %87 = load ptr, ptr @stderr, align 8, !tbaa !29
  %88 = load ptr, ptr %12, align 8, !tbaa !38
  %89 = getelementptr inbounds nuw %struct.png_text_struct, ptr %88, i32 0, i32 1
  %90 = load ptr, ptr %89, align 8, !tbaa !42
  %91 = call i32 (ptr, ptr, ...) @fprintf(ptr noundef %87, ptr noundef @.str.4, ptr noundef %90) #11
  br label %112

92:                                               ; preds = %81
  %93 = load i32, ptr %15, align 4, !tbaa !13
  %94 = sext i32 %93 to i64
  %95 = getelementptr inbounds [5 x %struct.anon], ptr @kPNGMetadataMap, i64 0, i64 %94
  %96 = getelementptr inbounds nuw %struct.anon, ptr %95, i32 0, i32 1
  %97 = load ptr, ptr %96, align 8, !tbaa !52
  %98 = load ptr, ptr %12, align 8, !tbaa !38
  %99 = getelementptr inbounds nuw %struct.png_text_struct, ptr %98, i32 0, i32 2
  %100 = load ptr, ptr %99, align 8, !tbaa !53
  %101 = load i64, ptr %17, align 8, !tbaa !9
  %102 = load ptr, ptr %16, align 8, !tbaa !45
  %103 = call i32 %97(ptr noundef %100, i64 noundef %101, ptr noundef %102)
  %104 = icmp ne i32 %103, 0
  br i1 %104, label %111, label %105

105:                                              ; preds = %92
  %106 = load ptr, ptr @stderr, align 8, !tbaa !29
  %107 = load ptr, ptr %12, align 8, !tbaa !38
  %108 = getelementptr inbounds nuw %struct.png_text_struct, ptr %107, i32 0, i32 1
  %109 = load ptr, ptr %108, align 8, !tbaa !42
  %110 = call i32 (ptr, ptr, ...) @fprintf(ptr noundef %106, ptr noundef @.str.5, ptr noundef %109) #11
  store i32 0, ptr %5, align 4
  store i32 1, ptr %18, align 4
  br label %113

111:                                              ; preds = %92
  br label %112

112:                                              ; preds = %111, %86
  store i32 8, ptr %18, align 4
  br label %113

113:                                              ; preds = %112, %105
  call void @llvm.lifetime.end.p0(i64 8, ptr %17) #11
  call void @llvm.lifetime.end.p0(i64 8, ptr %16) #11
  %114 = load i32, ptr %18, align 4
  switch i32 %114, label %120 [
    i32 8, label %119
  ]

115:                                              ; preds = %50
  br label %116

116:                                              ; preds = %115
  %117 = load i32, ptr %15, align 4, !tbaa !13
  %118 = add nsw i32 %117, 1
  store i32 %118, ptr %15, align 4, !tbaa !13
  br label %43, !llvm.loop !54

119:                                              ; preds = %113, %43
  store i32 0, ptr %18, align 4
  br label %120

120:                                              ; preds = %119, %113
  call void @llvm.lifetime.end.p0(i64 4, ptr %15) #11
  %121 = load i32, ptr %18, align 4
  switch i32 %121, label %147 [
    i32 0, label %122
  ]

122:                                              ; preds = %120
  br label %123

123:                                              ; preds = %122
  %124 = load i32, ptr %14, align 4, !tbaa !13
  %125 = add i32 %124, 1
  store i32 %125, ptr %14, align 4, !tbaa !13
  %126 = load ptr, ptr %12, align 8, !tbaa !38
  %127 = getelementptr inbounds nuw %struct.png_text_struct, ptr %126, i32 1
  store ptr %127, ptr %12, align 8, !tbaa !38
  br label %38, !llvm.loop !55

128:                                              ; preds = %38
  call void @llvm.lifetime.start.p0(i64 8, ptr %19) #11
  call void @llvm.lifetime.start.p0(i64 4, ptr %20) #11
  call void @llvm.lifetime.start.p0(i64 8, ptr %21) #11
  call void @llvm.lifetime.start.p0(i64 4, ptr %22) #11
  %129 = load ptr, ptr %6, align 8, !tbaa !17
  %130 = load ptr, ptr %11, align 8, !tbaa !19
  %131 = call i32 @png_get_iCCP(ptr noundef %129, ptr noundef %130, ptr noundef %19, ptr noundef %20, ptr noundef %21, ptr noundef %22)
  %132 = icmp eq i32 %131, 4096
  br i1 %132, label %133, label %143

133:                                              ; preds = %128
  %134 = load ptr, ptr %21, align 8, !tbaa !4
  %135 = load i32, ptr %22, align 4, !tbaa !13
  %136 = zext i32 %135 to i64
  %137 = load ptr, ptr %9, align 8, !tbaa !15
  %138 = getelementptr inbounds nuw %struct.Metadata, ptr %137, i32 0, i32 1
  %139 = call i32 @MetadataCopy(ptr noundef %134, i64 noundef %136, ptr noundef %138)
  %140 = icmp ne i32 %139, 0
  br i1 %140, label %142, label %141

141:                                              ; preds = %133
  store i32 0, ptr %5, align 4
  store i32 1, ptr %18, align 4
  br label %144

142:                                              ; preds = %133
  br label %143

143:                                              ; preds = %142, %128
  store i32 0, ptr %18, align 4
  br label %144

144:                                              ; preds = %143, %141
  call void @llvm.lifetime.end.p0(i64 4, ptr %22) #11
  call void @llvm.lifetime.end.p0(i64 8, ptr %21) #11
  call void @llvm.lifetime.end.p0(i64 4, ptr %20) #11
  call void @llvm.lifetime.end.p0(i64 8, ptr %19) #11
  %145 = load i32, ptr %18, align 4
  switch i32 %145, label %147 [
    i32 0, label %146
  ]

146:                                              ; preds = %144
  store i32 0, ptr %18, align 4
  br label %147

147:                                              ; preds = %146, %144, %120
  call void @llvm.lifetime.end.p0(i64 4, ptr %14) #11
  call void @llvm.lifetime.end.p0(i64 4, ptr %13) #11
  call void @llvm.lifetime.end.p0(i64 8, ptr %12) #11
  call void @llvm.lifetime.end.p0(i64 8, ptr %11) #11
  %148 = load i32, ptr %18, align 4
  switch i32 %148, label %154 [
    i32 0, label %149
  ]

149:                                              ; preds = %147
  br label %150

150:                                              ; preds = %149
  %151 = load i32, ptr %10, align 4, !tbaa !13
  %152 = add nsw i32 %151, 1
  store i32 %152, ptr %10, align 4, !tbaa !13
  br label %23, !llvm.loop !56

153:                                              ; preds = %23
  store i32 1, ptr %5, align 4
  store i32 1, ptr %18, align 4
  br label %154

154:                                              ; preds = %153, %147
  call void @llvm.lifetime.end.p0(i64 4, ptr %10) #11
  %155 = load i32, ptr %5, align 4
  ret i32 %155
}