; Function Attrs: nounwind uwtable
define internal fastcc range(i32 0, 2) i32 @ExtractMetadataFromPNG(ptr noundef %0, ptr noundef %1, ptr noundef %2, ptr noundef nonnull %3) unnamed_addr #0 {
  %5 = alloca ptr, align 8
  %6 = alloca ptr, align 8
  %7 = alloca i32, align 4
  %8 = alloca ptr, align 8
  %9 = alloca i32, align 4
  %10 = getelementptr inbounds nuw i8, ptr %3, i64 16
  br label %11

11:                                               ; preds = %4, %.critedge47
  %12 = phi i1 [ true, %4 ], [ false, %.critedge47 ]
  %13 = select i1 %12, ptr %1, ptr %2
  call void @llvm.lifetime.start.p0(i64 8, ptr nonnull %5) #15
  store ptr null, ptr %5, align 8, !tbaa !34
  %14 = call i32 @png_get_text(ptr noundef %0, ptr noundef %13, ptr noundef nonnull %5, ptr noundef null) #15
  %.not55 = icmp eq i32 %14, 0
  br i1 %.not55, label %._crit_edge, label %.preheader.preheader

.preheader.preheader:                             ; preds = %11
  %.pre = load ptr, ptr %5, align 8, !tbaa !34
  br label %.preheader

.preheader:                                       ; preds = %.preheader.preheader, %.loopexit
  %15 = phi ptr [ %43, %.loopexit ], [ %.pre, %.preheader.preheader ]
  %.03553 = phi i32 [ %42, %.loopexit ], [ 0, %.preheader.preheader ]
  %16 = getelementptr inbounds nuw i8, ptr %15, i64 8
  %17 = load ptr, ptr %16, align 8, !tbaa !36
  %18 = call i32 @strcmp(ptr noundef nonnull dereferenceable(1) %17, ptr noundef nonnull dereferenceable(22) @.str.6) #21
  %.not3963 = icmp eq i32 %18, 0
  br i1 %.not3963, label %._crit_edge65, label %.lr.ph

.lr.ph:                                           ; preds = %.preheader, %19
  %indvars.iv64 = phi i64 [ %indvars.iv.next, %19 ], [ 0, %.preheader ]
  %indvars.iv.next = add nuw nsw i64 %indvars.iv64, 1
  %exitcond = icmp eq i64 %indvars.iv.next, 4
  br i1 %exitcond, label %.loopexit, label %19, !llvm.loop !38

19:                                               ; preds = %.lr.ph
  %20 = getelementptr inbounds nuw [5 x %struct.anon], ptr @kPNGMetadataMap, i64 0, i64 %indvars.iv.next
  %21 = load ptr, ptr %20, align 8, !tbaa !39
  %22 = call i32 @strcmp(ptr noundef nonnull dereferenceable(1) %17, ptr noundef nonnull dereferenceable(1) %21) #21
  %.not39 = icmp eq i32 %22, 0
  br i1 %.not39, label %._crit_edge65, label %.lr.ph, !llvm.loop !38

._crit_edge65:                                    ; preds = %19, %.preheader
  %.lcssa = phi ptr [ @kPNGMetadataMap, %.preheader ], [ %20, %19 ]
  %23 = getelementptr inbounds nuw i8, ptr %.lcssa, i64 16
  %24 = load i64, ptr %23, align 8, !tbaa !41
  %25 = getelementptr inbounds nuw i8, ptr %3, i64 %24
  %26 = load ptr, ptr %25, align 8, !tbaa !42
  %.not40 = icmp eq ptr %26, null
  br i1 %.not40, label %30, label %27

27:                                               ; preds = %._crit_edge65
  %28 = load ptr, ptr @stderr, align 8, !tbaa !26
  %29 = call i32 (ptr, ptr, ...) @fprintf(ptr noundef %28, ptr noundef nonnull @.str.4, ptr noundef nonnull %17) #19
  %.pre59 = load ptr, ptr %5, align 8, !tbaa !34
  br label %.loopexit

30:                                               ; preds = %._crit_edge65
  %31 = load i32, ptr %15, align 8, !tbaa !44
  %.off = add i32 %31, -1
  %switch = icmp ult i32 %.off, 2
  %.029.in.v = select i1 %switch, i64 32, i64 24
  %.029.in = getelementptr inbounds nuw i8, ptr %15, i64 %.029.in.v
  %.029 = load i64, ptr %.029.in, align 8, !tbaa !45
  %32 = getelementptr inbounds nuw i8, ptr %.lcssa, i64 8
  %33 = load ptr, ptr %32, align 8, !tbaa !46
  %34 = getelementptr inbounds nuw i8, ptr %15, i64 16
  %35 = load ptr, ptr %34, align 8, !tbaa !47
  %36 = call i32 %33(ptr noundef %35, i64 noundef %.029, ptr noundef nonnull %25) #15
  %.not41 = icmp eq i32 %36, 0
  %.pre60 = load ptr, ptr %5, align 8, !tbaa !34
  br i1 %.not41, label %.critedge, label %.loopexit

.critedge:                                        ; preds = %30
  %37 = load ptr, ptr @stderr, align 8, !tbaa !26
  %38 = getelementptr inbounds nuw i8, ptr %.pre60, i64 8
  %39 = load ptr, ptr %38, align 8, !tbaa !36
  %40 = call i32 (ptr, ptr, ...) @fprintf(ptr noundef %37, ptr noundef nonnull @.str.5, ptr noundef %39) #19
  br label %.loopexit48.sink.split

.loopexit:                                        ; preds = %.lr.ph, %30, %27
  %41 = phi ptr [ %.pre60, %30 ], [ %.pre59, %27 ], [ %15, %.lr.ph ]
  %42 = add nuw i32 %.03553, 1
  %43 = getelementptr inbounds nuw i8, ptr %41, i64 56
  store ptr %43, ptr %5, align 8, !tbaa !34
  %exitcond58.not = icmp eq i32 %42, %14
  br i1 %exitcond58.not, label %._crit_edge, label %.preheader, !llvm.loop !48

._crit_edge:                                      ; preds = %.loopexit, %11
  call void @llvm.lifetime.start.p0(i64 8, ptr nonnull %6) #15
  call void @llvm.lifetime.start.p0(i64 4, ptr nonnull %7) #15
  call void @llvm.lifetime.start.p0(i64 8, ptr nonnull %8) #15
  call void @llvm.lifetime.start.p0(i64 4, ptr nonnull %9) #15
  %44 = call i32 @png_get_iCCP(ptr noundef %0, ptr noundef %13, ptr noundef nonnull %6, ptr noundef nonnull %7, ptr noundef nonnull %8, ptr noundef nonnull %9) #15
  %45 = icmp eq i32 %44, 4096
  br i1 %45, label %46, label %.critedge47

46:                                               ; preds = %._crit_edge
  %47 = load ptr, ptr %8, align 8, !tbaa !13
  %48 = load i32, ptr %9, align 4, !tbaa !11
  %49 = zext i32 %48 to i64
  %50 = call i32 @MetadataCopy(ptr noundef %47, i64 noundef %49, ptr noundef nonnull %10) #15
  %.not = icmp eq i32 %50, 0
  br i1 %.not, label %51, label %.critedge47

.critedge47:                                      ; preds = %46, %._crit_edge
  call void @llvm.lifetime.end.p0(i64 4, ptr nonnull %9) #15
  call void @llvm.lifetime.end.p0(i64 8, ptr nonnull %8) #15
  call void @llvm.lifetime.end.p0(i64 4, ptr nonnull %7) #15
  call void @llvm.lifetime.end.p0(i64 8, ptr nonnull %6) #15
  call void @llvm.lifetime.end.p0(i64 8, ptr nonnull %5) #15
  br i1 %12, label %11, label %.loopexit48, !llvm.loop !49

51:                                               ; preds = %46
  call void @llvm.lifetime.end.p0(i64 4, ptr nonnull %9) #15
  call void @llvm.lifetime.end.p0(i64 8, ptr nonnull %8) #15
  call void @llvm.lifetime.end.p0(i64 4, ptr nonnull %7) #15
  call void @llvm.lifetime.end.p0(i64 8, ptr nonnull %6) #15
  br label %.loopexit48.sink.split

.loopexit48.sink.split:                           ; preds = %.critedge, %51
  call void @llvm.lifetime.end.p0(i64 8, ptr nonnull %5) #15
  br label %.loopexit48

.loopexit48:                                      ; preds = %.critedge47, %.loopexit48.sink.split
  %.7 = phi i32 [ 0, %.loopexit48.sink.split ], [ 1, %.critedge47 ]
  ret i32 %.7
}